; Function Attrs: mustprogress nofree norecurse nosync nounwind willreturn memory(argmem: readwrite) uwtable
define void @_ZN3net23CachedNetworkParameters12InternalSwapEPS0_(ptr noundef nonnull align 8 captures(none) dereferenceable(72) %0, ptr noundef captures(none) %1) local_unnamed_addr #16 align 2 {
  %3 = getelementptr inbounds nuw i8, ptr %0, i64 32
  %4 = getelementptr inbounds nuw i8, ptr %1, i64 32
  %5 = load ptr, ptr %3, align 8, !tbaa !19
  %6 = load ptr, ptr %4, align 8, !tbaa !19
  store ptr %6, ptr %3, align 8, !tbaa !19
  store ptr %5, ptr %4, align 8, !tbaa !19
  %7 = getelementptr inbounds nuw i8, ptr %0, i64 40
  %8 = getelementptr inbounds nuw i8, ptr %1, i64 40
  %9 = load i32, ptr %7, align 8, !tbaa !22
  %10 = load i32, ptr %8, align 4, !tbaa !22
  store i32 %10, ptr %7, align 8, !tbaa !22
  store i32 %9, ptr %8, align 4, !tbaa !22
  %11 = getelementptr inbounds nuw i8, ptr %0, i64 44
  %12 = getelementptr inbounds nuw i8, ptr %1, i64 44
  %13 = load i32, ptr %11, align 4, !tbaa !22
  %14 = load i32, ptr %12, align 4, !tbaa !22
  store i32 %14, ptr %11, align 4, !tbaa !22
  store i32 %13, ptr %12, align 4, !tbaa !22
  %15 = getelementptr inbounds nuw i8, ptr %0, i64 48
  %16 = getelementptr inbounds nuw i8, ptr %1, i64 48
  %17 = load i64, ptr %15, align 8, !tbaa !49
  %18 = load i64, ptr %16, align 8, !tbaa !49
  store i64 %18, ptr %15, align 8, !tbaa !49
  store i64 %17, ptr %16, align 8, !tbaa !49
  %19 = getelementptr inbounds nuw i8, ptr %0, i64 56
  %20 = getelementptr inbounds nuw i8, ptr %1, i64 56
  %21 = load i32, ptr %19, align 8, !tbaa !22
  %22 = load i32, ptr %20, align 4, !tbaa !22
  store i32 %22, ptr %19, align 8, !tbaa !22
  store i32 %21, ptr %20, align 4, !tbaa !22
  %23 = getelementptr inbounds nuw i8, ptr %0, i64 60
  %24 = getelementptr inbounds nuw i8, ptr %1, i64 60
  %25 = load i32, ptr %23, align 4, !tbaa !22
  %26 = load i32, ptr %24, align 4, !tbaa !22
  store i32 %26, ptr %23, align 4, !tbaa !22
  store i32 %25, ptr %24, align 4, !tbaa !22
  %27 = getelementptr inbounds nuw i8, ptr %0, i64 64
  %28 = getelementptr inbounds nuw i8, ptr %1, i64 64
  %29 = load i64, ptr %27, align 8, !tbaa !49
  %30 = load i64, ptr %28, align 8, !tbaa !49
  store i64 %30, ptr %27, align 8, !tbaa !49
  store i64 %29, ptr %28, align 8, !tbaa !49
  %31 = getelementptr inbounds nuw i8, ptr %0, i64 24
  %32 = getelementptr inbounds nuw i8, ptr %1, i64 24
  %33 = load i32, ptr %31, align 8, !tbaa !22
  %34 = load i32, ptr %32, align 4, !tbaa !22
  store i32 %34, ptr %31, align 8, !tbaa !22
  store i32 %33, ptr %32, align 4, !tbaa !22
  %35 = getelementptr inbounds nuw i8, ptr %0, i64 8
  %36 = getelementptr inbounds nuw i8, ptr %1, i64 8
  %37 = load ptr, ptr %35, align 8, !tbaa !19
  %38 = load ptr, ptr %36, align 8, !tbaa !19
  store ptr %38, ptr %35, align 8, !tbaa !19
  store ptr %37, ptr %36, align 8, !tbaa !19
  %39 = getelementptr inbounds nuw i8, ptr %0, i64 28
  %40 = getelementptr inbounds nuw i8, ptr %1, i64 28
  %41 = load i32, ptr %39, align 4, !tbaa !22
  %42 = load i32, ptr %40, align 4, !tbaa !22
  store i32 %42, ptr %39, align 4, !tbaa !22
  store i32 %41, ptr %40, align 4, !tbaa !22
  ret void
}